target datalayout = "e-m:e-p270:32:32-p271:32:32-p272:64:64-i64:64-i128:128-f80:128-n8:16:32:64-S128"
target triple = "x86_64-pc-linux-gnu"

%struct.JsonLexContext = type { ptr, i64, i32, ptr, ptr, ptr, i8, i32, i32, i32, i32, ptr, ptr, ptr, i8, ptr, ptr }
%struct.PopulateArrayContext = type { ptr, ptr, ptr, ptr, ptr, ptr, ptr, i32, ptr }
%struct.PopulateArrayState = type { ptr, ptr, ptr, ptr, i32 }

; Function Attrs: nounwind uwtable
define internal zeroext i1 @populate_array_assign_ndims(ptr noundef %0, i32 noundef %1) #0 {
  %3 = alloca i1, align 1
  %4 = alloca ptr, align 8
  %5 = alloca i32, align 4
  %6 = alloca i32, align 4
  %7 = alloca i32, align 4
  store ptr %0, ptr %4, align 8
  store i32 %1, ptr %5, align 4
  call void @llvm.lifetime.start.p0(i64 4, ptr %6) #10
  %8 = load i32, ptr %5, align 4
  %9 = icmp sle i32 %8, 0
  br i1 %9, label %10, label %13

10:                                               ; preds = %2
  %11 = load ptr, ptr %4, align 8
  %12 = load i32, ptr %5, align 4
  call void @populate_array_report_expected_array(ptr noundef %11, i32 noundef %12)
  store i1 false, ptr %3, align 1
  store i32 1, ptr %7, align 4
  br label %44

13:                                               ; preds = %2
  %14 = load i32, ptr %5, align 4
  %15 = load ptr, ptr %4, align 8
  %16 = getelementptr inbounds nuw %struct.PopulateArrayContext, ptr %15, i32 0, i32 7
  store i32 %14, ptr %16, align 8
  %17 = load i32, ptr %5, align 4
  %18 = sext i32 %17 to i64
  %19 = mul i64 4, %18
  %20 = call ptr @palloc(i64 noundef %19)
  %21 = load ptr, ptr %4, align 8
  %22 = getelementptr inbounds nuw %struct.PopulateArrayContext, ptr %21, i32 0, i32 5
  store ptr %20, ptr %22, align 8
  %23 = load i32, ptr %5, align 4
  %24 = sext i32 %23 to i64
  %25 = mul i64 4, %24
  %26 = call ptr @palloc0(i64 noundef %25)
  %27 = load ptr, ptr %4, align 8
  %28 = getelementptr inbounds nuw %struct.PopulateArrayContext, ptr %27, i32 0, i32 6
  store ptr %26, ptr %28, align 8
  store i32 0, ptr %6, align 4
  br label %29

29:                                               ; preds = %40, %13
  %30 = load i32, ptr %6, align 4
  %31 = load i32, ptr %5, align 4
  %32 = icmp slt i32 %30, %31
  br i1 %32, label %33, label %43

33:                                               ; preds = %29
  %34 = load ptr, ptr %4, align 8
  %35 = getelementptr inbounds nuw %struct.PopulateArrayContext, ptr %34, i32 0, i32 5
  %36 = load ptr, ptr %35, align 8
  %37 = load i32, ptr %6, align 4
  %38 = sext i32 %37 to i64
  %39 = getelementptr inbounds i32, ptr %36, i64 %38
  store i32 -1, ptr %39, align 4
  br label %40

40:                                               ; preds = %33
  %41 = load i32, ptr %6, align 4
  %42 = add i32 %41, 1
  store i32 %42, ptr %6, align 4
  br label %29, !llvm.loop !32

43:                                               ; preds = %29
  store i1 true, ptr %3, align 1
  store i32 1, ptr %7, align 4
  br label %44

44:                                               ; preds = %43, %10
  call void @llvm.lifetime.end.p0(i64 4, ptr %6) #10
  %45 = load i1, ptr %3, align 1
  ret i1 %45
}

; Function Attrs: nounwind uwtable
define internal i32 @populate_array_object_start(ptr noundef %0) #0 {
  %2 = alloca i32, align 4
  %3 = alloca ptr, align 8
  %4 = alloca ptr, align 8
  %5 = alloca i32, align 4
  %6 = alloca i32, align 4
  store ptr %0, ptr %3, align 8
  call void @llvm.lifetime.start.p0(i64 8, ptr %4) #10
  %7 = load ptr, ptr %3, align 8
  store ptr %7, ptr %4, align 8
  call void @llvm.lifetime.start.p0(i64 4, ptr %5) #10
  %8 = load ptr, ptr %4, align 8
  %9 = getelementptr inbounds nuw %struct.PopulateArrayState, ptr %8, i32 0, i32 0
  %10 = load ptr, ptr %9, align 8
  %11 = getelementptr inbounds nuw %struct.JsonLexContext, ptr %10, i32 0, i32 8
  %12 = load i32, ptr %11, align 8
  store i32 %12, ptr %5, align 4
  %13 = load ptr, ptr %4, align 8
  %14 = getelementptr inbounds nuw %struct.PopulateArrayState, ptr %13, i32 0, i32 1
  %15 = load ptr, ptr %14, align 8
  %16 = getelementptr inbounds nuw %struct.PopulateArrayContext, ptr %15, i32 0, i32 7
  %17 = load i32, ptr %16, align 8
  %18 = icmp sle i32 %17, 0
  br i1 %18, label %19, label %27

19:                                               ; preds = %1
  %20 = load ptr, ptr %4, align 8
  %21 = getelementptr inbounds nuw %struct.PopulateArrayState, ptr %20, i32 0, i32 1
  %22 = load ptr, ptr %21, align 8
  %23 = load i32, ptr %5, align 4
  %24 = call zeroext i1 @populate_array_assign_ndims(ptr noundef %22, i32 noundef %23)
  br i1 %24, label %26, label %25

25:                                               ; preds = %19
  store i32 23, ptr %2, align 4
  store i32 1, ptr %6, align 4
  br label %42

26:                                               ; preds = %19
  br label %41

27:                                               ; preds = %1
  %28 = load i32, ptr %5, align 4
  %29 = load ptr, ptr %4, align 8
  %30 = getelementptr inbounds nuw %struct.PopulateArrayState, ptr %29, i32 0, i32 1
  %31 = load ptr, ptr %30, align 8
  %32 = getelementptr inbounds nuw %struct.PopulateArrayContext, ptr %31, i32 0, i32 7
  %33 = load i32, ptr %32, align 8
  %34 = icmp slt i32 %28, %33
  br i1 %34, label %35, label %40

35:                                               ; preds = %27
  %36 = load ptr, ptr %4, align 8
  %37 = getelementptr inbounds nuw %struct.PopulateArrayState, ptr %36, i32 0, i32 1
  %38 = load ptr, ptr %37, align 8
  %39 = load i32, ptr %5, align 4
  call void @populate_array_report_expected_array(ptr noundef %38, i32 noundef %39)
  store i32 23, ptr %2, align 4
  store i32 1, ptr %6, align 4
  br label %42

40:                                               ; preds = %27
  br label %41

41:                                               ; preds = %40, %26
  store i32 0, ptr %2, align 4
  store i32 1, ptr %6, align 4
  br label %42

42:                                               ; preds = %41, %35, %25
  call void @llvm.lifetime.end.p0(i64 4, ptr %5) #10
  call void @llvm.lifetime.end.p0(i64 8, ptr %4) #10
  %43 = load i32, ptr %2, align 4
  ret i32 %43
}