; Function Attrs: nounwind uwtable
define internal range(i32 0, 24) i32 @populate_array_object_start(ptr noundef readonly captures(none) %0) #0 {
  %2 = load ptr, ptr %0, align 8
  %3 = getelementptr inbounds nuw i8, ptr %2, i64 56
  %4 = load i32, ptr %3, align 8
  %5 = getelementptr inbounds nuw i8, ptr %0, i64 8
  %6 = load ptr, ptr %5, align 8
  %7 = getelementptr inbounds nuw i8, ptr %6, i64 56
  %8 = load i32, ptr %7, align 8
  %9 = icmp slt i32 %8, 1
  br i1 %9, label %10, label %22

10:                                               ; preds = %1
  %11 = icmp sgt i32 %4, 0
  br i1 %11, label %12, label %populate_array_assign_ndims.exit.sink.split

12:                                               ; preds = %10
  store i32 %4, ptr %7, align 8
  %13 = zext nneg i32 %4 to i64
  %14 = shl nuw nsw i64 %13, 2
  %15 = tail call ptr @palloc(i64 noundef %14) #15
  %16 = getelementptr inbounds nuw i8, ptr %6, i64 40
  store ptr %15, ptr %16, align 8
  %17 = tail call ptr @palloc0(i64 noundef %14) #15
  %18 = getelementptr inbounds nuw i8, ptr %6, i64 48
  store ptr %17, ptr %18, align 8
  br label %19

19:                                               ; preds = %19, %12
  %indvars.iv.i = phi i64 [ 0, %12 ], [ %indvars.iv.next.i, %19 ]
  %20 = load ptr, ptr %16, align 8
  %21 = getelementptr inbounds nuw i32, ptr %20, i64 %indvars.iv.i
  store i32 -1, ptr %21, align 4
  %indvars.iv.next.i = add nuw nsw i64 %indvars.iv.i, 1
  %exitcond.not.i = icmp eq i64 %indvars.iv.next.i, %13
  br i1 %exitcond.not.i, label %populate_array_assign_ndims.exit, label %19, !llvm.loop !35

22:                                               ; preds = %1
  %23 = icmp slt i32 %4, %8
  br i1 %23, label %populate_array_assign_ndims.exit.sink.split, label %populate_array_assign_ndims.exit

populate_array_assign_ndims.exit.sink.split:      ; preds = %22, %10
  tail call fastcc void @populate_array_report_expected_array(ptr noundef nonnull %6, i32 noundef %4)
  br label %populate_array_assign_ndims.exit

populate_array_assign_ndims.exit:                 ; preds = %19, %populate_array_assign_ndims.exit.sink.split, %22
  %.0 = phi i32 [ 0, %22 ], [ 23, %populate_array_assign_ndims.exit.sink.split ], [ 0, %19 ]
  ret i32 %.0
}